; Function Attrs: mustprogress nofree norecurse nosync nounwind willreturn memory(argmem: readwrite) uwtable
define void @_ZN31grpc_channel_security_connectorC2ESt17basic_string_viewIcSt11char_traitsIcEEN9grpc_core13RefCountedPtrI24grpc_channel_credentialsEENS5_I21grpc_call_credentialsEE(ptr noundef nonnull writeonly align 8 captures(none) dereferenceable(56) initializes((0, 56)) %0, i64 %1, ptr %2, ptr noundef captures(none) %3, ptr noundef captures(none) %4) unnamed_addr #3 align 2 personality ptr @__gxx_personality_v0 {
  %6 = getelementptr inbounds nuw i8, ptr %0, i64 8
  store i64 1, ptr %6, align 8, !tbaa !3
  %7 = getelementptr inbounds nuw i8, ptr %0, i64 16
  store i64 %1, ptr %7, align 8, !tbaa !8
  %.sroa.2.0..sroa_idx.i = getelementptr inbounds nuw i8, ptr %0, i64 24
  store ptr %2, ptr %.sroa.2.0..sroa_idx.i, align 8, !tbaa !9
  store ptr getelementptr inbounds nuw inrange(-16, 64) (i8, ptr @_ZTV31grpc_channel_security_connector, i64 16), ptr %0, align 8, !tbaa !12
  %8 = getelementptr inbounds nuw i8, ptr %0, i64 32
  store ptr null, ptr %8, align 8, !tbaa !14
  %9 = load ptr, ptr %3, align 8, !tbaa !14
  store ptr %9, ptr %8, align 8, !tbaa !14
  store ptr null, ptr %3, align 8, !tbaa !14
  %10 = getelementptr inbounds nuw i8, ptr %0, i64 40
  store ptr null, ptr %10, align 8, !tbaa !17
  %11 = load ptr, ptr %4, align 8, !tbaa !17
  store ptr %11, ptr %10, align 8, !tbaa !17
  store ptr null, ptr %4, align 8, !tbaa !17
  %12 = getelementptr inbounds nuw i8, ptr %0, i64 48
  store ptr null, ptr %12, align 8, !tbaa !20
  ret void
}